; Function Attrs: nounwind uwtable
define internal fastcc void @_jumbleReturningOption(ptr noundef captures(none) %0, ptr noundef nonnull readonly captures(none) %1) unnamed_addr #0 {
  %3 = getelementptr inbounds nuw i8, ptr %1, i64 4
  %4 = load ptr, ptr %0, align 8
  %5 = getelementptr inbounds nuw i8, ptr %0, i64 8
  %6 = load i64, ptr %5, align 8
  br label %.lr.ph.i

.lr.ph.i:                                         ; preds = %10, %2
  %.026.i = phi ptr [ %15, %10 ], [ %3, %2 ]
  %.02125.i = phi i64 [ %16, %10 ], [ 4, %2 ]
  %.02224.i = phi i64 [ %14, %10 ], [ %6, %2 ]
  %7 = icmp ugt i64 %.02224.i, 1023
  br i1 %7, label %8, label %10

8:                                                ; preds = %.lr.ph.i
  %9 = tail call i64 @hash_bytes_extended(ptr noundef %4, i32 noundef 1024, i64 noundef 0) #9
  store i64 %9, ptr %4, align 1
  br label %10

10:                                               ; preds = %8, %.lr.ph.i
  %.1.i = phi i64 [ 8, %8 ], [ %.02224.i, %.lr.ph.i ]
  %11 = sub nuw nsw i64 1024, %.1.i
  %12 = tail call i64 @llvm.umin.i64(i64 %.02125.i, i64 %11)
  %13 = getelementptr inbounds nuw i8, ptr %4, i64 %.1.i
  tail call void @llvm.memcpy.p0.p0.i64(ptr noundef nonnull align 1 dereferenceable(1) %13, ptr noundef nonnull align 1 dereferenceable(1) %.026.i, i64 %12, i1 false)
  %14 = add nuw nsw i64 %12, %.1.i
  %15 = getelementptr inbounds nuw i8, ptr %.026.i, i64 %12
  %16 = sub i64 %.02125.i, %12
  %.not.i = icmp eq i64 %16, 0
  br i1 %.not.i, label %AppendJumble.exit, label %.lr.ph.i, !llvm.loop !7

AppendJumble.exit:                                ; preds = %10
  store i64 %14, ptr %5, align 8
  %17 = getelementptr inbounds nuw i8, ptr %1, i64 8
  %18 = load ptr, ptr %17, align 8
  %.not = icmp eq ptr %18, null
  br i1 %.not, label %33, label %19

19:                                               ; preds = %AppendJumble.exit
  %20 = tail call i64 @strlen(ptr noundef nonnull dereferenceable(1) %18) #8
  %21 = add i64 %20, 1
  %22 = load ptr, ptr %0, align 8
  %.not23.i = icmp eq i64 %21, 0
  br i1 %.not23.i, label %AppendJumble.exit13, label %.lr.ph.i7

.lr.ph.i7:                                        ; preds = %19, %26
  %.026.i8 = phi ptr [ %31, %26 ], [ %18, %19 ]
  %.02125.i9 = phi i64 [ %32, %26 ], [ %21, %19 ]
  %.02224.i10 = phi i64 [ %30, %26 ], [ %14, %19 ]
  %23 = icmp ugt i64 %.02224.i10, 1023
  br i1 %23, label %24, label %26

24:                                               ; preds = %.lr.ph.i7
  %25 = tail call i64 @hash_bytes_extended(ptr noundef %22, i32 noundef 1024, i64 noundef 0) #9
  store i64 %25, ptr %22, align 1
  br label %26

26:                                               ; preds = %24, %.lr.ph.i7
  %.1.i11 = phi i64 [ 8, %24 ], [ %.02224.i10, %.lr.ph.i7 ]
  %27 = sub nuw nsw i64 1024, %.1.i11
  %28 = tail call i64 @llvm.umin.i64(i64 %.02125.i9, i64 %27)
  %29 = getelementptr inbounds nuw i8, ptr %22, i64 %.1.i11
  tail call void @llvm.memcpy.p0.p0.i64(ptr noundef nonnull align 1 dereferenceable(1) %29, ptr noundef nonnull align 1 dereferenceable(1) %.026.i8, i64 %28, i1 false)
  %30 = add nuw nsw i64 %28, %.1.i11
  %31 = getelementptr inbounds nuw i8, ptr %.026.i8, i64 %28
  %32 = sub i64 %.02125.i9, %28
  %.not.i12 = icmp eq i64 %32, 0
  br i1 %.not.i12, label %AppendJumble.exit13, label %.lr.ph.i7, !llvm.loop !7

AppendJumble.exit13:                              ; preds = %26, %19
  %.022.lcssa.i = phi i64 [ %14, %19 ], [ %30, %26 ]
  store i64 %.022.lcssa.i, ptr %5, align 8
  br label %33

33:                                               ; preds = %AppendJumble.exit13, %AppendJumble.exit
  ret void
}